; ModuleID = '32/407.c'
source_filename = "32/407.c"
target datalayout = "e-m:e-p270:32:32-p271:32:32-p272:64:64-i64:64-f80:128-n8:16:32:64-S128"
target triple = "x86_64-pc-linux-gnu"

@.str = private unnamed_addr constant [3 x i8] c"%d\00", align 1
@.str.1 = private unnamed_addr constant [3 x i8] c"%s\00", align 1
@.str.2 = private unnamed_addr constant [4 x i8] c"%s\0A\00", align 1

; Function Attrs: noinline nounwind uwtable
define dso_local i32 @main() #0 {
  %1 = alloca i32, align 4
  %2 = alloca i32, align 4
  %3 = alloca i32, align 4
  %4 = alloca i32, align 4
  %5 = alloca [100 x i8], align 16
  %6 = alloca [100 x i8], align 16
  %7 = alloca i32, align 4
  %8 = alloca i32, align 4
  %9 = alloca i8*, align 8
  %10 = alloca i8*, align 8
  %11 = alloca i8*, align 8
  store i32 0, i32* %1, align 4
  %12 = call i32 (i8*, ...) @__isoc99_scanf(i8* getelementptr inbounds ([3 x i8], [3 x i8]* @.str, i64 0, i64 0), i32* %2)
  store i32 0, i32* %4, align 4
  br label %13

13:                                               ; preds = %140, %0
  %14 = load i32, i32* %4, align 4
  %15 = load i32, i32* %2, align 4
  %16 = icmp slt i32 %14, %15
  br i1 %16, label %17, label %143

17:                                               ; preds = %13
  %18 = getelementptr inbounds [100 x i8], [100 x i8]* %5, i64 0, i64 0
  %19 = call i32 (i8*, ...) @__isoc99_scanf(i8* getelementptr inbounds ([3 x i8], [3 x i8]* @.str.1, i64 0, i64 0), i8* %18)
  %20 = getelementptr inbounds [100 x i8], [100 x i8]* %6, i64 0, i64 0
  %21 = call i32 (i8*, ...) @__isoc99_scanf(i8* getelementptr inbounds ([3 x i8], [3 x i8]* @.str.1, i64 0, i64 0), i8* %20)
  %22 = getelementptr inbounds [100 x i8], [100 x i8]* %5, i64 0, i64 0
  %23 = call i64 @strlen(i8* %22) #4
  %24 = trunc i64 %23 to i32
  store i32 %24, i32* %7, align 4
  %25 = getelementptr inbounds [100 x i8], [100 x i8]* %6, i64 0, i64 0
  %26 = call i64 @strlen(i8* %25) #4
  %27 = trunc i64 %26 to i32
  store i32 %27, i32* %8, align 4
  %28 = getelementptr inbounds [100 x i8], [100 x i8]* %5, i64 0, i64 0
  store i8* %28, i8** %9, align 8
  %29 = getelementptr inbounds [100 x i8], [100 x i8]* %6, i64 0, i64 0
  store i8* %29, i8** %10, align 8
  %30 = load i32, i32* %7, align 4
  %31 = add nsw i32 %30, 1
  %32 = sext i32 %31 to i64
  %33 = mul i64 %32, 1
  %34 = call noalias i8* @malloc(i64 %33) #5
  store i8* %34, i8** %11, align 8
  %35 = load i8*, i8** %11, align 8
  %36 = getelementptr inbounds [100 x i8], [100 x i8]* %5, i64 0, i64 0
  %37 = call i8* @strcpy(i8* %35, i8* %36) #5
  store i32 1, i32* %3, align 4
  br label %38

38:                                               ; preds = %133, %17
  %39 = load i32, i32* %3, align 4
  %40 = load i32, i32* %8, align 4
  %41 = icmp sle i32 %39, %40
  br i1 %41, label %42, label %136

42:                                               ; preds = %38
  %43 = load i8*, i8** %9, align 8
  %44 = load i32, i32* %7, align 4
  %45 = load i32, i32* %3, align 4
  %46 = sub nsw i32 %44, %45
  %47 = sext i32 %46 to i64
  %48 = getelementptr inbounds i8, i8* %43, i64 %47
  %49 = load i8, i8* %48, align 1
  %50 = sext i8 %49 to i32
  %51 = load i8*, i8** %10, align 8
  %52 = load i32, i32* %8, align 4
  %53 = load i32, i32* %3, align 4
  %54 = sub nsw i32 %52, %53
  %55 = sext i32 %54 to i64
  %56 = getelementptr inbounds i8, i8* %51, i64 %55
  %57 = load i8, i8* %56, align 1
  %58 = sext i8 %57 to i32
  %59 = sub nsw i32 %50, %58
  %60 = icmp slt i32 %59, 0
  br i1 %60, label %61, label %106

61:                                               ; preds = %42
  %62 = load i8*, i8** %9, align 8
  %63 = load i32, i32* %7, align 4
  %64 = load i32, i32* %3, align 4
  %65 = sub nsw i32 %63, %64
  %66 = sext i32 %65 to i64
  %67 = getelementptr inbounds i8, i8* %62, i64 %66
  %68 = load i8, i8* %67, align 1
  %69 = sext i8 %68 to i32
  %70 = add nsw i32 %69, 10
  %71 = load i8*, i8** %10, align 8
  %72 = load i32, i32* %8, align 4
  %73 = load i32, i32* %3, align 4
  %74 = sub nsw i32 %72, %73
  %75 = sext i32 %74 to i64
  %76 = getelementptr inbounds i8, i8* %71, i64 %75
  %77 = load i8, i8* %76, align 1
  %78 = sext i8 %77 to i32
  %79 = sub nsw i32 %70, %78
  %80 = add nsw i32 %79, 48
  %81 = trunc i32 %80 to i8
  %82 = load i8*, i8** %11, align 8
  %83 = load i32, i32* %7, align 4
  %84 = load i32, i32* %3, align 4
  %85 = sub nsw i32 %83, %84
  %86 = sext i32 %85 to i64
  %87 = getelementptr inbounds i8, i8* %82, i64 %86
  store i8 %81, i8* %87, align 1
  %88 = load i8*, i8** %9, align 8
  %89 = load i32, i32* %7, align 4
  %90 = load i32, i32* %3, align 4
  %91 = sub nsw i32 %89, %90
  %92 = sub nsw i32 %91, 1
  %93 = sext i32 %92 to i64
  %94 = getelementptr inbounds i8, i8* %88, i64 %93
  %95 = load i8, i8* %94, align 1
  %96 = add i8 %95, -1
  store i8 %96, i8* %94, align 1
  %97 = load i8*, i8** %11, align 8
  %98 = load i32, i32* %7, align 4
  %99 = load i32, i32* %3, align 4
  %100 = sub nsw i32 %98, %99
  %101 = sub nsw i32 %100, 1
  %102 = sext i32 %101 to i64
  %103 = getelementptr inbounds i8, i8* %97, i64 %102
  %104 = load i8, i8* %103, align 1
  %105 = add i8 %104, -1
  store i8 %105, i8* %103, align 1
  br label %132

106:                                              ; preds = %42
  %107 = load i8*, i8** %9, align 8
  %108 = load i32, i32* %7, align 4
  %109 = load i32, i32* %3, align 4
  %110 = sub nsw i32 %108, %109
  %111 = sext i32 %110 to i64
  %112 = getelementptr inbounds i8, i8* %107, i64 %111
  %113 = load i8, i8* %112, align 1
  %114 = sext i8 %113 to i32
  %115 = load i8*, i8** %10, align 8
  %116 = load i32, i32* %8, align 4
  %117 = load i32, i32* %3, align 4
  %118 = sub nsw i32 %116, %117
  %119 = sext i32 %118 to i64
  %120 = getelementptr inbounds i8, i8* %115, i64 %119
  %121 = load i8, i8* %120, align 1
  %122 = sext i8 %121 to i32
  %123 = sub nsw i32 %114, %122
  %124 = add nsw i32 %123, 48
  %125 = trunc i32 %124 to i8
  %126 = load i8*, i8** %11, align 8
  %127 = load i32, i32* %7, align 4
  %128 = load i32, i32* %3, align 4
  %129 = sub nsw i32 %127, %128
  %130 = sext i32 %129 to i64
  %131 = getelementptr inbounds i8, i8* %126, i64 %130
  store i8 %125, i8* %131, align 1
  br label %132

132:                                              ; preds = %106, %61
  br label %133

133:                                              ; preds = %132
  %134 = load i32, i32* %3, align 4
  %135 = add nsw i32 %134, 1
  store i32 %135, i32* %3, align 4
  br label %38

136:                                              ; preds = %38
  %137 = load i8*, i8** %11, align 8
  %138 = call i32 (i8*, ...) @printf(i8* getelementptr inbounds ([4 x i8], [4 x i8]* @.str.2, i64 0, i64 0), i8* %137)
  %139 = load i8*, i8** %11, align 8
  call void @free(i8* %139) #5
  br label %140

140:                                              ; preds = %136
  %141 = load i32, i32* %4, align 4
  %142 = add nsw i32 %141, 1
  store i32 %142, i32* %4, align 4
  br label %13

143:                                              ; preds = %13
  ret i32 0
}

declare dso_local i32 @__isoc99_scanf(i8*, ...) #1

; Function Attrs: nounwind readonly
declare dso_local i64 @strlen(i8*) #2

; Function Attrs: nounwind
declare dso_local noalias i8* @malloc(i64) #3

; Function Attrs: nounwind
declare dso_local i8* @strcpy(i8*, i8*) #3

declare dso_local i32 @printf(i8*, ...) #1

; Function Attrs: nounwind
declare dso_local void @free(i8*) #3


!llvm.module.flags = !{!0}
!llvm.ident = !{!1}

!0 = !{i32 1, !"wchar_size", i32 4}
!1 = !{!"clang version 10.0.0-4ubuntu1 "}
