; ModuleID = 'source-C-CXX/31/407.c'
source_filename = "source-C-CXX/31/407.c"
target datalayout = "e-m:e-p270:32:32-p271:32:32-p272:64:64-i64:64-f80:128-n8:16:32:64-S128"
target triple = "x86_64-pc-linux-gnu"

@.str = private unnamed_addr constant [3 x i8] c"%d\00", align 1
@.str.1 = private unnamed_addr constant [3 x i8] c"%s\00", align 1

; Function Attrs: nounwind sspstrong uwtable
define dso_local i32 @main() local_unnamed_addr #0 {
  %1 = alloca i32, align 4
  %2 = alloca [100 x i8], align 16
  %3 = alloca [100 x i8], align 16
  %4 = bitcast i32* %1 to i8*
  call void @llvm.lifetime.start.p0i8(i64 4, i8* nonnull %4) #8
  %5 = call i32 (i8*, ...) @__isoc99_scanf(i8* getelementptr inbounds ([3 x i8], [3 x i8]* @.str, i64 0, i64 0), i32* nonnull %1)
  %6 = getelementptr inbounds [100 x i8], [100 x i8]* %2, i64 0, i64 0
  call void @llvm.lifetime.start.p0i8(i64 100, i8* nonnull %6) #8
  %7 = getelementptr inbounds [100 x i8], [100 x i8]* %3, i64 0, i64 0
  call void @llvm.lifetime.start.p0i8(i64 100, i8* nonnull %7) #8
  %8 = load i32, i32* %1, align 4, !tbaa !5
  %9 = icmp sgt i32 %8, 0
  br i1 %9, label %10, label %65

10:                                               ; preds = %0, %60
  %11 = phi i32 [ %62, %60 ], [ 0, %0 ]
  %12 = call i32 (i8*, ...) @__isoc99_scanf(i8* getelementptr inbounds ([3 x i8], [3 x i8]* @.str.1, i64 0, i64 0), i8* nonnull %6)
  %13 = call i32 (i8*, ...) @__isoc99_scanf(i8* getelementptr inbounds ([3 x i8], [3 x i8]* @.str.1, i64 0, i64 0), i8* nonnull %7)
  %14 = call i64 @strlen(i8* noundef nonnull %6) #9
  %15 = call i64 @strlen(i8* noundef nonnull %7) #9
  %16 = trunc i64 %15 to i32
  %17 = shl i64 %14, 32
  %18 = add i64 %17, 4294967296
  %19 = ashr exact i64 %18, 32
  %20 = call noalias align 16 i8* @malloc(i64 %19) #8
  %21 = call i8* @strcpy(i8* noundef nonnull dereferenceable(1) %20, i8* noundef nonnull %6) #8
  %22 = icmp slt i32 %16, 1
  br i1 %22, label %60, label %23

23:                                               ; preds = %10
  %24 = shl i64 %14, 32
  %25 = ashr exact i64 %24, 32
  %26 = shl i64 %15, 32
  %27 = ashr exact i64 %26, 32
  %28 = add i64 %15, 1
  %29 = and i64 %28, 4294967295
  br label %30

30:                                               ; preds = %23, %55
  %31 = phi i64 [ 1, %23 ], [ %58, %55 ]
  %32 = sub nsw i64 %25, %31
  %33 = getelementptr inbounds [100 x i8], [100 x i8]* %2, i64 0, i64 %32
  %34 = load i8, i8* %33, align 1, !tbaa !9
  %35 = sext i8 %34 to i32
  %36 = sub nsw i64 %27, %31
  %37 = getelementptr inbounds [100 x i8], [100 x i8]* %3, i64 0, i64 %36
  %38 = load i8, i8* %37, align 1, !tbaa !9
  %39 = sext i8 %38 to i32
  %40 = sub nsw i32 %35, %39
  %41 = icmp slt i32 %40, 0
  br i1 %41, label %42, label %52

42:                                               ; preds = %30
  %43 = add i8 %34, 58
  %44 = sub i8 %43, %38
  %45 = add nsw i64 %32, -1
  %46 = getelementptr inbounds [100 x i8], [100 x i8]* %2, i64 0, i64 %45
  %47 = load i8, i8* %46, align 1, !tbaa !9
  %48 = add i8 %47, -1
  store i8 %48, i8* %46, align 1, !tbaa !9
  %49 = getelementptr inbounds i8, i8* %20, i64 %45
  %50 = load i8, i8* %49, align 1, !tbaa !9
  %51 = add i8 %50, -1
  store i8 %51, i8* %49, align 1, !tbaa !9
  br label %55

52:                                               ; preds = %30
  %53 = trunc i32 %40 to i8
  %54 = add i8 %53, 48
  br label %55

55:                                               ; preds = %42, %52
  %56 = phi i8 [ %44, %42 ], [ %54, %52 ]
  %57 = getelementptr inbounds i8, i8* %20, i64 %32
  store i8 %56, i8* %57, align 1
  %58 = add nuw nsw i64 %31, 1
  %59 = icmp eq i64 %58, %29
  br i1 %59, label %60, label %30, !llvm.loop !10

60:                                               ; preds = %55, %10
  %61 = call i32 @puts(i8* nonnull dereferenceable(1) %20)
  call void @free(i8* %20) #8
  %62 = add nuw nsw i32 %11, 1
  %63 = load i32, i32* %1, align 4, !tbaa !5
  %64 = icmp slt i32 %62, %63
  br i1 %64, label %10, label %65, !llvm.loop !12

65:                                               ; preds = %60, %0
  call void @llvm.lifetime.end.p0i8(i64 100, i8* nonnull %7) #8
  call void @llvm.lifetime.end.p0i8(i64 100, i8* nonnull %6) #8
  call void @llvm.lifetime.end.p0i8(i64 4, i8* nonnull %4) #8
  ret i32 0
}

; Function Attrs: argmemonly mustprogress nofree nosync nounwind willreturn
declare void @llvm.lifetime.start.p0i8(i64 immarg, i8* nocapture) #1

; Function Attrs: nofree nounwind
declare noundef i32 @__isoc99_scanf(i8* nocapture noundef readonly, ...) local_unnamed_addr #2

; Function Attrs: argmemonly mustprogress nofree nounwind readonly willreturn
declare i64 @strlen(i8* nocapture) local_unnamed_addr #3

; Function Attrs: inaccessiblememonly mustprogress nofree nounwind willreturn
declare noalias noundef align 16 i8* @malloc(i64 noundef) local_unnamed_addr #4

; Function Attrs: argmemonly mustprogress nofree nounwind willreturn
declare i8* @strcpy(i8* noalias returned writeonly, i8* noalias nocapture readonly) local_unnamed_addr #5

; Function Attrs: inaccessiblemem_or_argmemonly mustprogress nounwind willreturn
declare void @free(i8* nocapture noundef) local_unnamed_addr #6

; Function Attrs: argmemonly mustprogress nofree nosync nounwind willreturn
declare void @llvm.lifetime.end.p0i8(i64 immarg, i8* nocapture) #1

; Function Attrs: nofree nounwind
declare noundef i32 @puts(i8* nocapture noundef readonly) local_unnamed_addr #7


!llvm.module.flags = !{!0, !1, !2, !3}
!llvm.ident = !{!4}

!0 = !{i32 1, !"wchar_size", i32 4}
!1 = !{i32 7, !"PIC Level", i32 2}
!2 = !{i32 7, !"PIE Level", i32 2}
!3 = !{i32 7, !"uwtable", i32 1}
!4 = !{!"clang version 13.0.0"}
!5 = !{!6, !6, i64 0}
!6 = !{!"int", !7, i64 0}
!7 = !{!"omnipotent char", !8, i64 0}
!8 = !{!"Simple C/C++ TBAA"}
!9 = !{!7, !7, i64 0}
!10 = distinct !{!10, !11}
!11 = !{!"llvm.loop.mustprogress"}
!12 = distinct !{!12, !11}
